target datalayout = "e-m:e-p270:32:32-p271:32:32-p272:64:64-i64:64-i128:128-f80:128-n8:16:32:64-S128"
target triple = "x86_64-pc-linux-gnu"

%struct.Part_Man_t_ = type { i32, i32, ptr, i32, ptr, ptr }
%struct.Vec_Ptr_t_ = type { i32, i32, ptr }

; Function Attrs: inlinehint nounwind uwtable
define internal void @Vec_PtrGrow(ptr noundef %0, i32 noundef %1) #4 {
  %3 = alloca ptr, align 8
  %4 = alloca i32, align 4
  store ptr %0, ptr %3, align 8, !tbaa !17
  store i32 %1, ptr %4, align 4, !tbaa !3
  %5 = load ptr, ptr %3, align 8, !tbaa !17
  %6 = getelementptr inbounds nuw %struct.Vec_Ptr_t_, ptr %5, i32 0, i32 0
  %7 = load i32, ptr %6, align 8, !tbaa !20
  %8 = load i32, ptr %4, align 4, !tbaa !3
  %9 = icmp sge i32 %7, %8
  br i1 %9, label %10, label %11

10:                                               ; preds = %2
  br label %36

11:                                               ; preds = %2
  %12 = load ptr, ptr %3, align 8, !tbaa !17
  %13 = getelementptr inbounds nuw %struct.Vec_Ptr_t_, ptr %12, i32 0, i32 2
  %14 = load ptr, ptr %13, align 8, !tbaa !21
  %15 = icmp ne ptr %14, null
  br i1 %15, label %16, label %24

16:                                               ; preds = %11
  %17 = load ptr, ptr %3, align 8, !tbaa !17
  %18 = getelementptr inbounds nuw %struct.Vec_Ptr_t_, ptr %17, i32 0, i32 2
  %19 = load ptr, ptr %18, align 8, !tbaa !21
  %20 = load i32, ptr %4, align 4, !tbaa !3
  %21 = sext i32 %20 to i64
  %22 = mul i64 8, %21
  %23 = call ptr @realloc(ptr noundef %19, i64 noundef %22) #14
  br label %29

24:                                               ; preds = %11
  %25 = load i32, ptr %4, align 4, !tbaa !3
  %26 = sext i32 %25 to i64
  %27 = mul i64 8, %26
  %28 = call noalias ptr @malloc(i64 noundef %27) #12
  br label %29

29:                                               ; preds = %24, %16
  %30 = phi ptr [ %23, %16 ], [ %28, %24 ]
  %31 = load ptr, ptr %3, align 8, !tbaa !17
  %32 = getelementptr inbounds nuw %struct.Vec_Ptr_t_, ptr %31, i32 0, i32 2
  store ptr %30, ptr %32, align 8, !tbaa !21
  %33 = load i32, ptr %4, align 4, !tbaa !3
  %34 = load ptr, ptr %3, align 8, !tbaa !17
  %35 = getelementptr inbounds nuw %struct.Vec_Ptr_t_, ptr %34, i32 0, i32 0
  store i32 %33, ptr %35, align 8, !tbaa !20
  br label %36

36:                                               ; preds = %29, %10
  ret void
}

; Function Attrs: inlinehint nounwind uwtable
define internal void @Vec_PtrPush(ptr noundef %0, ptr noundef %1) #4 {
  %3 = alloca ptr, align 8
  %4 = alloca ptr, align 8
  store ptr %0, ptr %3, align 8, !tbaa !17
  store ptr %1, ptr %4, align 8, !tbaa !22
  %5 = load ptr, ptr %3, align 8, !tbaa !17
  %6 = getelementptr inbounds nuw %struct.Vec_Ptr_t_, ptr %5, i32 0, i32 1
  %7 = load i32, ptr %6, align 4, !tbaa !18
  %8 = load ptr, ptr %3, align 8, !tbaa !17
  %9 = getelementptr inbounds nuw %struct.Vec_Ptr_t_, ptr %8, i32 0, i32 0
  %10 = load i32, ptr %9, align 8, !tbaa !20
  %11 = icmp eq i32 %7, %10
  br i1 %11, label %12, label %26

12:                                               ; preds = %2
  %13 = load ptr, ptr %3, align 8, !tbaa !17
  %14 = getelementptr inbounds nuw %struct.Vec_Ptr_t_, ptr %13, i32 0, i32 0
  %15 = load i32, ptr %14, align 8, !tbaa !20
  %16 = icmp slt i32 %15, 16
  br i1 %16, label %17, label %19

17:                                               ; preds = %12
  %18 = load ptr, ptr %3, align 8, !tbaa !17
  call void @Vec_PtrGrow(ptr noundef %18, i32 noundef 16)
  br label %25

19:                                               ; preds = %12
  %20 = load ptr, ptr %3, align 8, !tbaa !17
  %21 = load ptr, ptr %3, align 8, !tbaa !17
  %22 = getelementptr inbounds nuw %struct.Vec_Ptr_t_, ptr %21, i32 0, i32 0
  %23 = load i32, ptr %22, align 8, !tbaa !20
  %24 = mul nsw i32 2, %23
  call void @Vec_PtrGrow(ptr noundef %20, i32 noundef %24)
  br label %25

25:                                               ; preds = %19, %17
  br label %26

26:                                               ; preds = %25, %2
  %27 = load ptr, ptr %4, align 8, !tbaa !22
  %28 = load ptr, ptr %3, align 8, !tbaa !17
  %29 = getelementptr inbounds nuw %struct.Vec_Ptr_t_, ptr %28, i32 0, i32 2
  %30 = load ptr, ptr %29, align 8, !tbaa !21
  %31 = load ptr, ptr %3, align 8, !tbaa !17
  %32 = getelementptr inbounds nuw %struct.Vec_Ptr_t_, ptr %31, i32 0, i32 1
  %33 = load i32, ptr %32, align 4, !tbaa !18
  %34 = add nsw i32 %33, 1
  store i32 %34, ptr %32, align 4, !tbaa !18
  %35 = sext i32 %33 to i64
  %36 = getelementptr inbounds ptr, ptr %30, i64 %35
  store ptr %27, ptr %36, align 8, !tbaa !22
  ret void
}

; Function Attrs: inlinehint nounwind uwtable
define internal void @Vec_PtrWriteEntry(ptr noundef %0, i32 noundef %1, ptr noundef %2) #4 {
  %4 = alloca ptr, align 8
  %5 = alloca i32, align 4
  %6 = alloca ptr, align 8
  store ptr %0, ptr %4, align 8, !tbaa !17
  store i32 %1, ptr %5, align 4, !tbaa !3
  store ptr %2, ptr %6, align 8, !tbaa !22
  %7 = load ptr, ptr %6, align 8, !tbaa !22
  %8 = load ptr, ptr %4, align 8, !tbaa !17
  %9 = getelementptr inbounds nuw %struct.Vec_Ptr_t_, ptr %8, i32 0, i32 2
  %10 = load ptr, ptr %9, align 8, !tbaa !21
  %11 = load i32, ptr %5, align 4, !tbaa !3
  %12 = sext i32 %11 to i64
  %13 = getelementptr inbounds ptr, ptr %10, i64 %12
  store ptr %7, ptr %13, align 8, !tbaa !22
  ret void
}

; Function Attrs: inlinehint nounwind uwtable
define internal ptr @Part_OneNext(ptr noundef %0) #4 {
  %2 = alloca ptr, align 8
  store ptr %0, ptr %2, align 8, !tbaa !25
  %3 = load ptr, ptr %2, align 8, !tbaa !25
  %4 = load ptr, ptr %3, align 8, !tbaa !25
  ret ptr %4
}

; Function Attrs: inlinehint nounwind uwtable
define internal ptr @Vec_PtrEntry(ptr noundef %0, i32 noundef %1) #4 {
  %3 = alloca ptr, align 8
  %4 = alloca i32, align 4
  store ptr %0, ptr %3, align 8, !tbaa !17
  store i32 %1, ptr %4, align 4, !tbaa !3
  %5 = load ptr, ptr %3, align 8, !tbaa !17
  %6 = getelementptr inbounds nuw %struct.Vec_Ptr_t_, ptr %5, i32 0, i32 2
  %7 = load ptr, ptr %6, align 8, !tbaa !21
  %8 = load i32, ptr %4, align 4, !tbaa !3
  %9 = sext i32 %8 to i64
  %10 = getelementptr inbounds ptr, ptr %7, i64 %9
  %11 = load ptr, ptr %10, align 8, !tbaa !22
  ret ptr %11
}

; Function Attrs: inlinehint nounwind uwtable
define internal void @Vec_PtrFillExtra(ptr noundef %0, i32 noundef %1, ptr noundef %2) #4 {
  %4 = alloca ptr, align 8
  %5 = alloca i32, align 4
  %6 = alloca ptr, align 8
  %7 = alloca i32, align 4
  %8 = alloca i32, align 4
  store ptr %0, ptr %4, align 8, !tbaa !17
  store i32 %1, ptr %5, align 4, !tbaa !3
  store ptr %2, ptr %6, align 8, !tbaa !22
  call void @llvm.lifetime.start.p0(i64 4, ptr %7) #11
  %9 = load i32, ptr %5, align 4, !tbaa !3
  %10 = load ptr, ptr %4, align 8, !tbaa !17
  %11 = getelementptr inbounds nuw %struct.Vec_Ptr_t_, ptr %10, i32 0, i32 1
  %12 = load i32, ptr %11, align 4, !tbaa !18
  %13 = icmp sle i32 %9, %12
  br i1 %13, label %14, label %15

14:                                               ; preds = %3
  store i32 1, ptr %8, align 4
  br label %61

15:                                               ; preds = %3
  %16 = load i32, ptr %5, align 4, !tbaa !3
  %17 = load ptr, ptr %4, align 8, !tbaa !17
  %18 = getelementptr inbounds nuw %struct.Vec_Ptr_t_, ptr %17, i32 0, i32 0
  %19 = load i32, ptr %18, align 8, !tbaa !20
  %20 = mul nsw i32 2, %19
  %21 = icmp sgt i32 %16, %20
  br i1 %21, label %22, label %25

22:                                               ; preds = %15
  %23 = load ptr, ptr %4, align 8, !tbaa !17
  %24 = load i32, ptr %5, align 4, !tbaa !3
  call void @Vec_PtrGrow(ptr noundef %23, i32 noundef %24)
  br label %38

25:                                               ; preds = %15
  %26 = load i32, ptr %5, align 4, !tbaa !3
  %27 = load ptr, ptr %4, align 8, !tbaa !17
  %28 = getelementptr inbounds nuw %struct.Vec_Ptr_t_, ptr %27, i32 0, i32 0
  %29 = load i32, ptr %28, align 8, !tbaa !20
  %30 = icmp sgt i32 %26, %29
  br i1 %30, label %31, label %37

31:                                               ; preds = %25
  %32 = load ptr, ptr %4, align 8, !tbaa !17
  %33 = load ptr, ptr %4, align 8, !tbaa !17
  %34 = getelementptr inbounds nuw %struct.Vec_Ptr_t_, ptr %33, i32 0, i32 0
  %35 = load i32, ptr %34, align 8, !tbaa !20
  %36 = mul nsw i32 2, %35
  call void @Vec_PtrGrow(ptr noundef %32, i32 noundef %36)
  br label %37

37:                                               ; preds = %31, %25
  br label %38

38:                                               ; preds = %37, %22
  %39 = load ptr, ptr %4, align 8, !tbaa !17
  %40 = getelementptr inbounds nuw %struct.Vec_Ptr_t_, ptr %39, i32 0, i32 1
  %41 = load i32, ptr %40, align 4, !tbaa !18
  store i32 %41, ptr %7, align 4, !tbaa !3
  br label %42

42:                                               ; preds = %54, %38
  %43 = load i32, ptr %7, align 4, !tbaa !3
  %44 = load i32, ptr %5, align 4, !tbaa !3
  %45 = icmp slt i32 %43, %44
  br i1 %45, label %46, label %57

46:                                               ; preds = %42
  %47 = load ptr, ptr %6, align 8, !tbaa !22
  %48 = load ptr, ptr %4, align 8, !tbaa !17
  %49 = getelementptr inbounds nuw %struct.Vec_Ptr_t_, ptr %48, i32 0, i32 2
  %50 = load ptr, ptr %49, align 8, !tbaa !21
  %51 = load i32, ptr %7, align 4, !tbaa !3
  %52 = sext i32 %51 to i64
  %53 = getelementptr inbounds ptr, ptr %50, i64 %52
  store ptr %47, ptr %53, align 8, !tbaa !22
  br label %54

54:                                               ; preds = %46
  %55 = load i32, ptr %7, align 4, !tbaa !3
  %56 = add nsw i32 %55, 1
  store i32 %56, ptr %7, align 4, !tbaa !3
  br label %42, !llvm.loop !28

57:                                               ; preds = %42
  %58 = load i32, ptr %5, align 4, !tbaa !3
  %59 = load ptr, ptr %4, align 8, !tbaa !17
  %60 = getelementptr inbounds nuw %struct.Vec_Ptr_t_, ptr %59, i32 0, i32 1
  store i32 %58, ptr %60, align 4, !tbaa !18
  store i32 0, ptr %8, align 4
  br label %61

61:                                               ; preds = %57, %14
  call void @llvm.lifetime.end.p0(i64 4, ptr %7) #11
  %62 = load i32, ptr %8, align 4
  switch i32 %62, label %64 [
    i32 0, label %63
    i32 1, label %63
  ]

63:                                               ; preds = %61, %61
  ret void

64:                                               ; preds = %61
  unreachable
}

; Function Attrs: inlinehint nounwind uwtable
define internal i32 @Part_SizeType(i32 noundef %0, i32 noundef %1) #4 {
  %3 = alloca i32, align 4
  %4 = alloca i32, align 4
  store i32 %0, ptr %3, align 4, !tbaa !3
  store i32 %1, ptr %4, align 4, !tbaa !3
  %5 = load i32, ptr %3, align 4, !tbaa !3
  %6 = load i32, ptr %4, align 4, !tbaa !3
  %7 = sdiv i32 %5, %6
  %8 = load i32, ptr %3, align 4, !tbaa !3
  %9 = load i32, ptr %4, align 4, !tbaa !3
  %10 = srem i32 %8, %9
  %11 = icmp sgt i32 %10, 0
  %12 = zext i1 %11 to i32
  %13 = add nsw i32 %7, %12
  ret i32 %13
}

; Function Attrs: nounwind uwtable
define ptr @Part_ManFetch(ptr noundef %0, i32 noundef %1) #0 {
  %3 = alloca ptr, align 8
  %4 = alloca ptr, align 8
  %5 = alloca i32, align 4
  %6 = alloca i32, align 4
  %7 = alloca i32, align 4
  %8 = alloca ptr, align 8
  %9 = alloca i32, align 4
  store ptr %0, ptr %4, align 8, !tbaa !7
  store i32 %1, ptr %5, align 4, !tbaa !3
  call void @llvm.lifetime.start.p0(i64 4, ptr %6) #11
  call void @llvm.lifetime.start.p0(i64 4, ptr %7) #11
  call void @llvm.lifetime.start.p0(i64 8, ptr %8) #11
  %10 = load i32, ptr %5, align 4, !tbaa !3
  %11 = load ptr, ptr %4, align 8, !tbaa !7
  %12 = getelementptr inbounds nuw %struct.Part_Man_t_, ptr %11, i32 0, i32 1
  %13 = load i32, ptr %12, align 4, !tbaa !14
  %14 = call i32 @Part_SizeType(i32 noundef %10, i32 noundef %13)
  store i32 %14, ptr %6, align 4, !tbaa !3
  %15 = load ptr, ptr %4, align 8, !tbaa !7
  %16 = getelementptr inbounds nuw %struct.Part_Man_t_, ptr %15, i32 0, i32 5
  %17 = load ptr, ptr %16, align 8, !tbaa !16
  %18 = load i32, ptr %6, align 4, !tbaa !3
  %19 = add nsw i32 %18, 1
  call void @Vec_PtrFillExtra(ptr noundef %17, i32 noundef %19, ptr noundef null)
  %20 = load ptr, ptr %4, align 8, !tbaa !7
  %21 = getelementptr inbounds nuw %struct.Part_Man_t_, ptr %20, i32 0, i32 5
  %22 = load ptr, ptr %21, align 8, !tbaa !16
  %23 = load i32, ptr %6, align 4, !tbaa !3
  %24 = call ptr @Vec_PtrEntry(ptr noundef %22, i32 noundef %23)
  store ptr %24, ptr %8, align 8, !tbaa !25
  %25 = icmp ne ptr %24, null
  br i1 %25, label %26, label %34

26:                                               ; preds = %2
  %27 = load ptr, ptr %4, align 8, !tbaa !7
  %28 = getelementptr inbounds nuw %struct.Part_Man_t_, ptr %27, i32 0, i32 5
  %29 = load ptr, ptr %28, align 8, !tbaa !16
  %30 = load i32, ptr %6, align 4, !tbaa !3
  %31 = load ptr, ptr %8, align 8, !tbaa !25
  %32 = call ptr @Part_OneNext(ptr noundef %31)
  call void @Vec_PtrWriteEntry(ptr noundef %29, i32 noundef %30, ptr noundef %32)
  %33 = load ptr, ptr %8, align 8, !tbaa !25
  store ptr %33, ptr %3, align 8
  store i32 1, ptr %9, align 4
  br label %81

34:                                               ; preds = %2
  %35 = load ptr, ptr %4, align 8, !tbaa !7
  %36 = getelementptr inbounds nuw %struct.Part_Man_t_, ptr %35, i32 0, i32 1
  %37 = load i32, ptr %36, align 4, !tbaa !14
  %38 = load i32, ptr %6, align 4, !tbaa !3
  %39 = mul nsw i32 %37, %38
  store i32 %39, ptr %7, align 4, !tbaa !3
  %40 = load ptr, ptr %4, align 8, !tbaa !7
  %41 = getelementptr inbounds nuw %struct.Part_Man_t_, ptr %40, i32 0, i32 3
  %42 = load i32, ptr %41, align 8, !tbaa !26
  %43 = load i32, ptr %7, align 4, !tbaa !3
  %44 = icmp slt i32 %42, %43
  br i1 %44, label %45, label %65

45:                                               ; preds = %34
  %46 = load ptr, ptr %4, align 8, !tbaa !7
  %47 = getelementptr inbounds nuw %struct.Part_Man_t_, ptr %46, i32 0, i32 0
  %48 = load i32, ptr %47, align 8, !tbaa !10
  %49 = sext i32 %48 to i64
  %50 = mul i64 1, %49
  %51 = call noalias ptr @malloc(i64 noundef %50) #12
  %52 = load ptr, ptr %4, align 8, !tbaa !7
  %53 = getelementptr inbounds nuw %struct.Part_Man_t_, ptr %52, i32 0, i32 2
  store ptr %51, ptr %53, align 8, !tbaa !27
  %54 = load ptr, ptr %4, align 8, !tbaa !7
  %55 = getelementptr inbounds nuw %struct.Part_Man_t_, ptr %54, i32 0, i32 0
  %56 = load i32, ptr %55, align 8, !tbaa !10
  %57 = load ptr, ptr %4, align 8, !tbaa !7
  %58 = getelementptr inbounds nuw %struct.Part_Man_t_, ptr %57, i32 0, i32 3
  store i32 %56, ptr %58, align 8, !tbaa !26
  %59 = load ptr, ptr %4, align 8, !tbaa !7
  %60 = getelementptr inbounds nuw %struct.Part_Man_t_, ptr %59, i32 0, i32 4
  %61 = load ptr, ptr %60, align 8, !tbaa !15
  %62 = load ptr, ptr %4, align 8, !tbaa !7
  %63 = getelementptr inbounds nuw %struct.Part_Man_t_, ptr %62, i32 0, i32 2
  %64 = load ptr, ptr %63, align 8, !tbaa !27
  call void @Vec_PtrPush(ptr noundef %61, ptr noundef %64)
  br label %65

65:                                               ; preds = %45, %34
  %66 = load ptr, ptr %4, align 8, !tbaa !7
  %67 = getelementptr inbounds nuw %struct.Part_Man_t_, ptr %66, i32 0, i32 2
  %68 = load ptr, ptr %67, align 8, !tbaa !27
  store ptr %68, ptr %8, align 8, !tbaa !25
  %69 = load i32, ptr %7, align 4, !tbaa !3
  %70 = load ptr, ptr %4, align 8, !tbaa !7
  %71 = getelementptr inbounds nuw %struct.Part_Man_t_, ptr %70, i32 0, i32 2
  %72 = load ptr, ptr %71, align 8, !tbaa !27
  %73 = sext i32 %69 to i64
  %74 = getelementptr inbounds i8, ptr %72, i64 %73
  store ptr %74, ptr %71, align 8, !tbaa !27
  %75 = load i32, ptr %7, align 4, !tbaa !3
  %76 = load ptr, ptr %4, align 8, !tbaa !7
  %77 = getelementptr inbounds nuw %struct.Part_Man_t_, ptr %76, i32 0, i32 3
  %78 = load i32, ptr %77, align 8, !tbaa !26
  %79 = sub nsw i32 %78, %75
  store i32 %79, ptr %77, align 8, !tbaa !26
  %80 = load ptr, ptr %8, align 8, !tbaa !25
  store ptr %80, ptr %3, align 8
  store i32 1, ptr %9, align 4
  br label %81

81:                                               ; preds = %65, %26
  call void @llvm.lifetime.end.p0(i64 8, ptr %8) #11
  call void @llvm.lifetime.end.p0(i64 4, ptr %7) #11
  call void @llvm.lifetime.end.p0(i64 4, ptr %6) #11
  %82 = load ptr, ptr %3, align 8
  ret ptr %82
}