; Function Attrs: nounwind uwtable
define ptr @Part_ManFetch(ptr noundef captures(none) %0, i32 noundef %1) local_unnamed_addr #4 {
  %3 = getelementptr inbounds nuw i8, ptr %0, i64 4
  %4 = load i32, ptr %3, align 4, !tbaa !11
  %5 = sdiv i32 %1, %4
  %6 = srem i32 %1, %4
  %7 = icmp sgt i32 %6, 0
  %8 = zext i1 %7 to i32
  %9 = add nsw i32 %5, %8
  %10 = getelementptr inbounds nuw i8, ptr %0, i64 32
  %11 = load ptr, ptr %10, align 8, !tbaa !17
  %12 = add nsw i32 %9, 1
  %13 = getelementptr inbounds nuw i8, ptr %11, i64 4
  %14 = load i32, ptr %13, align 4, !tbaa !12
  %.not.i.not = icmp slt i32 %9, %14
  br i1 %.not.i.not, label %Vec_PtrFillExtra.exit, label %15

15:                                               ; preds = %2
  %16 = load i32, ptr %11, align 8, !tbaa !14
  %17 = shl nsw i32 %16, 1
  %.not31 = icmp slt i32 %9, %17
  %.not.i.i.not = icmp sgt i32 %16, %9
  br i1 %.not31, label %30, label %18

18:                                               ; preds = %15
  br i1 %.not.i.i.not, label %Vec_PtrGrow.exit.i, label %19

19:                                               ; preds = %18
  %20 = getelementptr inbounds nuw i8, ptr %11, i64 8
  %21 = load ptr, ptr %20, align 8, !tbaa !15
  %.not9.i.i = icmp eq ptr %21, null
  %22 = sext i32 %12 to i64
  %23 = shl nsw i64 %22, 3
  br i1 %.not9.i.i, label %26, label %24

24:                                               ; preds = %19
  %25 = tail call ptr @realloc(ptr noundef nonnull %21, i64 noundef %23) #25
  br label %28

26:                                               ; preds = %19
  %27 = tail call noalias ptr @malloc(i64 noundef %23) #23
  br label %28

28:                                               ; preds = %26, %24
  %29 = phi ptr [ %25, %24 ], [ %27, %26 ]
  store ptr %29, ptr %20, align 8, !tbaa !15
  br label %Vec_PtrGrow.exit.sink.split.i

30:                                               ; preds = %15
  br i1 %.not.i.i.not, label %Vec_PtrGrow.exit.i, label %31

31:                                               ; preds = %30
  %32 = getelementptr inbounds nuw i8, ptr %11, i64 8
  %33 = load ptr, ptr %32, align 8, !tbaa !15
  %.not9.i21.i = icmp eq ptr %33, null
  %34 = sext i32 %17 to i64
  %35 = shl nsw i64 %34, 3
  br i1 %.not9.i21.i, label %38, label %36

36:                                               ; preds = %31
  %37 = tail call ptr @realloc(ptr noundef nonnull %33, i64 noundef %35) #25
  br label %40

38:                                               ; preds = %31
  %39 = tail call noalias ptr @malloc(i64 noundef %35) #23
  br label %40

40:                                               ; preds = %38, %36
  %41 = phi ptr [ %37, %36 ], [ %39, %38 ]
  store ptr %41, ptr %32, align 8, !tbaa !15
  br label %Vec_PtrGrow.exit.sink.split.i

Vec_PtrGrow.exit.sink.split.i:                    ; preds = %40, %28
  %.sink.i = phi i32 [ %17, %40 ], [ %12, %28 ]
  store i32 %.sink.i, ptr %11, align 8, !tbaa !14
  %.pre = load i32, ptr %13, align 4, !tbaa !12
  br label %Vec_PtrGrow.exit.i

Vec_PtrGrow.exit.i:                               ; preds = %Vec_PtrGrow.exit.sink.split.i, %30, %18
  %42 = phi i32 [ %.pre, %Vec_PtrGrow.exit.sink.split.i ], [ %14, %30 ], [ %14, %18 ]
  %.not32 = icmp sgt i32 %42, %9
  br i1 %.not32, label %._crit_edge.i, label %.lr.ph.i

.lr.ph.i:                                         ; preds = %Vec_PtrGrow.exit.i
  %43 = getelementptr inbounds nuw i8, ptr %11, i64 8
  %44 = sext i32 %42 to i64
  %wide.trip.count.i = sext i32 %12 to i64
  br label %45

45:                                               ; preds = %45, %.lr.ph.i
  %indvars.iv.i = phi i64 [ %44, %.lr.ph.i ], [ %indvars.iv.next.i, %45 ]
  %46 = load ptr, ptr %43, align 8, !tbaa !15
  %47 = getelementptr inbounds ptr, ptr %46, i64 %indvars.iv.i
  store ptr null, ptr %47, align 8, !tbaa !18
  %indvars.iv.next.i = add nsw i64 %indvars.iv.i, 1
  %exitcond.not.i = icmp eq i64 %indvars.iv.next.i, %wide.trip.count.i
  br i1 %exitcond.not.i, label %._crit_edge.i, label %45, !llvm.loop !21

._crit_edge.i:                                    ; preds = %45, %Vec_PtrGrow.exit.i
  store i32 %12, ptr %13, align 4, !tbaa !12
  %.pre33 = load ptr, ptr %10, align 8, !tbaa !17
  br label %Vec_PtrFillExtra.exit

Vec_PtrFillExtra.exit:                            ; preds = %2, %._crit_edge.i
  %48 = phi ptr [ %11, %2 ], [ %.pre33, %._crit_edge.i ]
  %49 = getelementptr i8, ptr %48, i64 8
  %.val = load ptr, ptr %49, align 8, !tbaa !15
  %50 = sext i32 %9 to i64
  %51 = getelementptr inbounds ptr, ptr %.val, i64 %50
  %52 = load ptr, ptr %51, align 8, !tbaa !18
  %.not = icmp eq ptr %52, null
  br i1 %.not, label %54, label %53

53:                                               ; preds = %Vec_PtrFillExtra.exit
  %.val27 = load ptr, ptr %52, align 8, !tbaa !22
  store ptr %.val27, ptr %51, align 8, !tbaa !18
  br label %105

54:                                               ; preds = %Vec_PtrFillExtra.exit
  %55 = load i32, ptr %3, align 4, !tbaa !11
  %56 = mul nsw i32 %55, %9
  %57 = getelementptr inbounds nuw i8, ptr %0, i64 16
  %58 = load i32, ptr %57, align 8, !tbaa !23
  %59 = icmp slt i32 %58, %56
  br i1 %59, label %60, label %98

60:                                               ; preds = %54
  %61 = load i32, ptr %0, align 8, !tbaa !3
  %62 = sext i32 %61 to i64
  %63 = tail call noalias ptr @malloc(i64 noundef %62) #23
  %64 = getelementptr inbounds nuw i8, ptr %0, i64 8
  store ptr %63, ptr %64, align 8, !tbaa !24
  store i32 %61, ptr %57, align 8, !tbaa !23
  %65 = getelementptr inbounds nuw i8, ptr %0, i64 24
  %66 = load ptr, ptr %65, align 8, !tbaa !16
  %67 = getelementptr inbounds nuw i8, ptr %66, i64 4
  %68 = load i32, ptr %67, align 4, !tbaa !12
  %69 = load i32, ptr %66, align 8, !tbaa !14
  %70 = icmp eq i32 %68, %69
  br i1 %70, label %71, label %.Vec_PtrGrow.exit11_crit_edge.i

.Vec_PtrGrow.exit11_crit_edge.i:                  ; preds = %60
  %.phi.trans.insert.i = getelementptr inbounds nuw i8, ptr %66, i64 8
  %.pre.i = load ptr, ptr %.phi.trans.insert.i, align 8, !tbaa !15
  br label %Vec_PtrPush.exit

71:                                               ; preds = %60
  %72 = icmp slt i32 %68, 16
  br i1 %72, label %73, label %81

73:                                               ; preds = %71
  %74 = getelementptr inbounds nuw i8, ptr %66, i64 8
  %75 = load ptr, ptr %74, align 8, !tbaa !15
  %.not9.i.i29 = icmp eq ptr %75, null
  br i1 %.not9.i.i29, label %78, label %76

76:                                               ; preds = %73
  %77 = tail call dereferenceable_or_null(128) ptr @realloc(ptr noundef nonnull %75, i64 noundef 128) #25
  br label %Vec_PtrGrow.exit.i30

78:                                               ; preds = %73
  %79 = tail call noalias dereferenceable_or_null(128) ptr @malloc(i64 noundef 128) #23
  br label %Vec_PtrGrow.exit.i30

Vec_PtrGrow.exit.i30:                             ; preds = %78, %76
  %80 = phi ptr [ %77, %76 ], [ %79, %78 ]
  store ptr %80, ptr %74, align 8, !tbaa !15
  store i32 16, ptr %66, align 8, !tbaa !14
  br label %Vec_PtrPush.exit

81:                                               ; preds = %71
  %82 = shl nuw nsw i32 %68, 1
  %83 = getelementptr inbounds nuw i8, ptr %66, i64 8
  %84 = load ptr, ptr %83, align 8, !tbaa !15
  %.not9.i10.i = icmp eq ptr %84, null
  %85 = zext nneg i32 %82 to i64
  %86 = shl nuw nsw i64 %85, 3
  br i1 %.not9.i10.i, label %89, label %87

87:                                               ; preds = %81
  %88 = tail call ptr @realloc(ptr noundef nonnull %84, i64 noundef %86) #25
  br label %91

89:                                               ; preds = %81
  %90 = tail call noalias ptr @malloc(i64 noundef %86) #23
  br label %91

91:                                               ; preds = %89, %87
  %92 = phi ptr [ %88, %87 ], [ %90, %89 ]
  store ptr %92, ptr %83, align 8, !tbaa !15
  store i32 %82, ptr %66, align 8, !tbaa !14
  br label %Vec_PtrPush.exit

Vec_PtrPush.exit:                                 ; preds = %.Vec_PtrGrow.exit11_crit_edge.i, %Vec_PtrGrow.exit.i30, %91
  %93 = phi ptr [ %.pre.i, %.Vec_PtrGrow.exit11_crit_edge.i ], [ %92, %91 ], [ %80, %Vec_PtrGrow.exit.i30 ]
  %94 = load i32, ptr %67, align 4, !tbaa !12
  %95 = add nsw i32 %94, 1
  store i32 %95, ptr %67, align 4, !tbaa !12
  %96 = sext i32 %94 to i64
  %97 = getelementptr inbounds ptr, ptr %93, i64 %96
  store ptr %63, ptr %97, align 8, !tbaa !18
  %.pre34 = load i32, ptr %57, align 8, !tbaa !23
  br label %98

98:                                               ; preds = %Vec_PtrPush.exit, %54
  %99 = phi i32 [ %.pre34, %Vec_PtrPush.exit ], [ %58, %54 ]
  %100 = getelementptr inbounds nuw i8, ptr %0, i64 8
  %101 = load ptr, ptr %100, align 8, !tbaa !24
  %102 = sext i32 %56 to i64
  %103 = getelementptr inbounds i8, ptr %101, i64 %102
  store ptr %103, ptr %100, align 8, !tbaa !24
  %104 = sub nsw i32 %99, %56
  store i32 %104, ptr %57, align 8, !tbaa !23
  br label %105

105:                                              ; preds = %98, %53
  %.0 = phi ptr [ %52, %53 ], [ %101, %98 ]
  ret ptr %.0
}